target datalayout = "e-m:e-p270:32:32-p271:32:32-p272:64:64-i64:64-i128:128-f80:128-n8:16:32:64-S128"
target triple = "x86_64-pc-linux-gnu"

@got_deadlock_timeout = internal global i32 0, align 4
@MyLatch = external global ptr, align 8

; Function Attrs: nounwind uwtable
define dso_local void @CheckDeadLockAlert() #0 {
  %1 = alloca i32, align 4
  call void @llvm.lifetime.start.p0(i64 4, ptr %1) #10
  %2 = call ptr @__errno_location() #12
  %3 = load i32, ptr %2, align 4
  store i32 %3, ptr %1, align 4
  store volatile i32 1, ptr @got_deadlock_timeout, align 4
  %4 = load ptr, ptr @MyLatch, align 8
  call void @SetLatch(ptr noundef %4)
  %5 = load i32, ptr %1, align 4
  %6 = call ptr @__errno_location() #12
  store i32 %5, ptr %6, align 4
  call void @llvm.lifetime.end.p0(i64 4, ptr %1) #10
  ret void
}