; Function Attrs: nounwind uwtable
define dso_local void @CheckDeadLockAlert() local_unnamed_addr #0 {
  %1 = tail call ptr @__errno_location() #16
  %2 = load i32, ptr %1, align 4
  store volatile i32 1, ptr @got_deadlock_timeout, align 4
  %3 = load ptr, ptr @MyLatch, align 8
  tail call void @SetLatch(ptr noundef %3) #14
  store i32 %2, ptr %1, align 4
  ret void
}